(lp0
S'poi'
p1
aS'to_messages'
p2
aS'salary_to_totalStockValue_ratio'
p3
aS'deferral_payments'
p4
aS'expenses'
p5
aS'deferred_income'
p6
aS'from_poi_to_this_person'
p7
aS'fraction_from_poi'
p8
aS'exercised_stock_options'
p9
aS'restricted_stock_deferred'
p10
aS'shared_receipt_with_poi'
p11
aS'loan_advances'
p12
aS'from_messages'
p13
aS'other'
p14
aS'director_fees'
p15
aS'bonus'
p16
aS'total_stock_value'
p17
aS'from_this_person_to_poi'
p18
aS'restricted_stock'
p19
aS'salary'
p20
aS'total_payments'
p21
aS'long_term_incentive'
p22
aS'fraction_to_poi'
p23
aS'salary_to_totalPayment_ratio'
p24
a.